target datalayout = "e-m:e-p270:32:32-p271:32:32-p272:64:64-i64:64-i128:128-f80:128-n8:16:32:64-S128"
target triple = "x86_64-pc-linux-gnu"

%struct.PJconsts = type { ptr, ptr, ptr, ptr, ptr, ptr, ptr, ptr, ptr, ptr, ptr, ptr, i32, ptr, ptr, ptr, ptr, ptr, ptr, ptr, ptr, double, double, double, double, double, double, double, double, double, double, double, double, double, double, double, double, double, double, double, double, double, double, i32, i32, i32, i32, i32, i32, i32, i32, i32, i32, i32, ptr, ptr, ptr, ptr, ptr, ptr, double, double, double, double, double, double, double, double, double, double, double, i32, [7 x double], i32, ptr, ptr, double, double, i32, [4 x i8], %"class.std::shared_ptr", i8, double, i8, %"class.std::__cxx11::basic_string", %"class.std::__cxx11::basic_string", %"class.std::__cxx11::basic_string", i8, %"class.std::vector", i32, %"class.std::vector.3", i32, i8, i8, i8, ptr }
%"class.std::shared_ptr" = type { %"class.std::__shared_ptr" }
%"class.std::__shared_ptr" = type { ptr, %"class.std::__shared_count" }
%"class.std::__shared_count" = type { ptr }
%"class.std::__cxx11::basic_string" = type { %"struct.std::__cxx11::basic_string<char>::_Alloc_hider", i64, %union.anon }
%"struct.std::__cxx11::basic_string<char>::_Alloc_hider" = type { ptr }
%union.anon = type { i64, [8 x i8] }
%"class.std::vector" = type { %"struct.std::_Vector_base" }
%"struct.std::_Vector_base" = type { %"struct.std::_Vector_base<osgeo::proj::operation::GridDescription, std::allocator<osgeo::proj::operation::GridDescription>>::_Vector_impl" }
%"struct.std::_Vector_base<osgeo::proj::operation::GridDescription, std::allocator<osgeo::proj::operation::GridDescription>>::_Vector_impl" = type { %"struct.std::_Vector_base<osgeo::proj::operation::GridDescription, std::allocator<osgeo::proj::operation::GridDescription>>::_Vector_impl_data" }
%"struct.std::_Vector_base<osgeo::proj::operation::GridDescription, std::allocator<osgeo::proj::operation::GridDescription>>::_Vector_impl_data" = type { ptr, ptr, ptr }
%"class.std::vector.3" = type { %"struct.std::_Vector_base.4" }
%"struct.std::_Vector_base.4" = type { %"struct.std::_Vector_base<PJCoordOperation, std::allocator<PJCoordOperation>>::_Vector_impl" }
%"struct.std::_Vector_base<PJCoordOperation, std::allocator<PJCoordOperation>>::_Vector_impl" = type { %"struct.std::_Vector_base<PJCoordOperation, std::allocator<PJCoordOperation>>::_Vector_impl_data" }
%"struct.std::_Vector_base<PJCoordOperation, std::allocator<PJCoordOperation>>::_Vector_impl_data" = type { ptr, ptr, ptr }
%"struct.(anonymous namespace)::pj_gn_sinu_data" = type { ptr, double, double, double, double }
%struct.PJ_LP = type { double, double }
%struct.PJ_XY = type { double, double }

; Function Attrs: mustprogress uwtable
define internal { double, double } @_ZL17gn_sinu_s_inverse5PJ_XYP8PJconsts(double %0, double %1, ptr noundef %2) #0 {
  %4 = alloca %struct.PJ_LP, align 8
  %5 = alloca %struct.PJ_XY, align 8
  %6 = alloca ptr, align 8
  %7 = alloca ptr, align 8
  %8 = getelementptr inbounds nuw { double, double }, ptr %5, i32 0, i32 0
  store double %0, ptr %8, align 8
  %9 = getelementptr inbounds nuw { double, double }, ptr %5, i32 0, i32 1
  store double %1, ptr %9, align 8
  store ptr %2, ptr %6, align 8, !tbaa !3
  call void @llvm.memset.p0.i64(ptr align 8 %4, i8 0, i64 16, i1 false)
  call void @llvm.lifetime.start.p0(i64 8, ptr %7) #8
  %10 = load ptr, ptr %6, align 8, !tbaa !3
  %11 = getelementptr inbounds nuw %struct.PJconsts, ptr %10, i32 0, i32 11
  %12 = load ptr, ptr %11, align 8, !tbaa !43
  store ptr %12, ptr %7, align 8, !tbaa !41
  %13 = load ptr, ptr %7, align 8, !tbaa !41
  %14 = getelementptr inbounds nuw %"struct.(anonymous namespace)::pj_gn_sinu_data", ptr %13, i32 0, i32 4
  %15 = load double, ptr %14, align 8, !tbaa !62
  %16 = getelementptr inbounds nuw %struct.PJ_XY, ptr %5, i32 0, i32 1
  %17 = load double, ptr %16, align 8, !tbaa !55
  %18 = fdiv double %17, %15
  store double %18, ptr %16, align 8, !tbaa !55
  %19 = load ptr, ptr %7, align 8, !tbaa !41
  %20 = getelementptr inbounds nuw %"struct.(anonymous namespace)::pj_gn_sinu_data", ptr %19, i32 0, i32 1
  %21 = load double, ptr %20, align 8, !tbaa !53
  %22 = fcmp une double %21, 0.000000e+00
  br i1 %22, label %23, label %41

23:                                               ; preds = %3
  %24 = load ptr, ptr %6, align 8, !tbaa !3
  %25 = getelementptr inbounds nuw %struct.PJconsts, ptr %24, i32 0, i32 0
  %26 = load ptr, ptr %25, align 8, !tbaa !64
  %27 = load ptr, ptr %7, align 8, !tbaa !41
  %28 = getelementptr inbounds nuw %"struct.(anonymous namespace)::pj_gn_sinu_data", ptr %27, i32 0, i32 1
  %29 = load double, ptr %28, align 8, !tbaa !53
  %30 = getelementptr inbounds nuw %struct.PJ_XY, ptr %5, i32 0, i32 1
  %31 = load double, ptr %30, align 8, !tbaa !55
  %32 = getelementptr inbounds nuw %struct.PJ_XY, ptr %5, i32 0, i32 1
  %33 = load double, ptr %32, align 8, !tbaa !55
  %34 = call double @sin(double noundef %33) #8, !tbaa !54
  %35 = call double @llvm.fmuladd.f64(double %29, double %31, double %34)
  %36 = load ptr, ptr %7, align 8, !tbaa !41
  %37 = getelementptr inbounds nuw %"struct.(anonymous namespace)::pj_gn_sinu_data", ptr %36, i32 0, i32 2
  %38 = load double, ptr %37, align 8, !tbaa !52
  %39 = fdiv double %35, %38
  %40 = call noundef double @_Z5aasinP6pj_ctxd(ptr noundef %26, double noundef %39)
  br label %63

41:                                               ; preds = %3
  %42 = load ptr, ptr %7, align 8, !tbaa !41
  %43 = getelementptr inbounds nuw %"struct.(anonymous namespace)::pj_gn_sinu_data", ptr %42, i32 0, i32 2
  %44 = load double, ptr %43, align 8, !tbaa !52
  %45 = fcmp une double %44, 1.000000e+00
  br i1 %45, label %46, label %58

46:                                               ; preds = %41
  %47 = load ptr, ptr %6, align 8, !tbaa !3
  %48 = getelementptr inbounds nuw %struct.PJconsts, ptr %47, i32 0, i32 0
  %49 = load ptr, ptr %48, align 8, !tbaa !64
  %50 = getelementptr inbounds nuw %struct.PJ_XY, ptr %5, i32 0, i32 1
  %51 = load double, ptr %50, align 8, !tbaa !55
  %52 = call double @sin(double noundef %51) #8, !tbaa !54
  %53 = load ptr, ptr %7, align 8, !tbaa !41
  %54 = getelementptr inbounds nuw %"struct.(anonymous namespace)::pj_gn_sinu_data", ptr %53, i32 0, i32 2
  %55 = load double, ptr %54, align 8, !tbaa !52
  %56 = fdiv double %52, %55
  %57 = call noundef double @_Z5aasinP6pj_ctxd(ptr noundef %49, double noundef %56)
  br label %61

58:                                               ; preds = %41
  %59 = getelementptr inbounds nuw %struct.PJ_XY, ptr %5, i32 0, i32 1
  %60 = load double, ptr %59, align 8, !tbaa !55
  br label %61

61:                                               ; preds = %58, %46
  %62 = phi double [ %57, %46 ], [ %60, %58 ]
  br label %63

63:                                               ; preds = %61, %23
  %64 = phi double [ %40, %23 ], [ %62, %61 ]
  %65 = getelementptr inbounds nuw %struct.PJ_LP, ptr %4, i32 0, i32 1
  store double %64, ptr %65, align 8, !tbaa !57
  %66 = getelementptr inbounds nuw %struct.PJ_XY, ptr %5, i32 0, i32 0
  %67 = load double, ptr %66, align 8, !tbaa !60
  %68 = load ptr, ptr %7, align 8, !tbaa !41
  %69 = getelementptr inbounds nuw %"struct.(anonymous namespace)::pj_gn_sinu_data", ptr %68, i32 0, i32 3
  %70 = load double, ptr %69, align 8, !tbaa !63
  %71 = load ptr, ptr %7, align 8, !tbaa !41
  %72 = getelementptr inbounds nuw %"struct.(anonymous namespace)::pj_gn_sinu_data", ptr %71, i32 0, i32 1
  %73 = load double, ptr %72, align 8, !tbaa !53
  %74 = getelementptr inbounds nuw %struct.PJ_XY, ptr %5, i32 0, i32 1
  %75 = load double, ptr %74, align 8, !tbaa !55
  %76 = call double @cos(double noundef %75) #8, !tbaa !54
  %77 = fadd double %73, %76
  %78 = fmul double %70, %77
  %79 = fdiv double %67, %78
  %80 = getelementptr inbounds nuw %struct.PJ_LP, ptr %4, i32 0, i32 0
  store double %79, ptr %80, align 8, !tbaa !61
  call void @llvm.lifetime.end.p0(i64 8, ptr %7) #8
  %81 = load { double, double }, ptr %4, align 8
  ret { double, double } %81
}