; Function Attrs: mustprogress uwtable
define internal { double, double } @_ZL17gn_sinu_s_inverse5PJ_XYP8PJconsts(double %0, double %1, ptr noundef readonly captures(none) %2) #0 {
  %4 = getelementptr inbounds nuw i8, ptr %2, i64 88
  %5 = load ptr, ptr %4, align 8, !tbaa !40
  %6 = getelementptr inbounds nuw i8, ptr %5, i64 32
  %7 = load double, ptr %6, align 8, !tbaa !52
  %8 = fdiv double %1, %7
  %9 = getelementptr inbounds nuw i8, ptr %5, i64 8
  %10 = load double, ptr %9, align 8, !tbaa !50
  %11 = fcmp une double %10, 0.000000e+00
  br i1 %11, label %12, label %20

12:                                               ; preds = %3
  %13 = load ptr, ptr %2, align 8, !tbaa !54
  %14 = tail call double @sin(double noundef %8) #7, !tbaa !51
  %15 = tail call double @llvm.fmuladd.f64(double %10, double %8, double %14)
  %16 = getelementptr inbounds nuw i8, ptr %5, i64 16
  %17 = load double, ptr %16, align 8, !tbaa !49
  %18 = fdiv double %15, %17
  %19 = tail call noundef double @_Z5aasinP6pj_ctxd(ptr noundef %13, double noundef %18)
  br label %29

20:                                               ; preds = %3
  %21 = getelementptr inbounds nuw i8, ptr %5, i64 16
  %22 = load double, ptr %21, align 8, !tbaa !49
  %23 = fcmp une double %22, 1.000000e+00
  br i1 %23, label %24, label %29

24:                                               ; preds = %20
  %25 = load ptr, ptr %2, align 8, !tbaa !54
  %26 = tail call double @sin(double noundef %8) #7, !tbaa !51
  %27 = fdiv double %26, %22
  %28 = tail call noundef double @_Z5aasinP6pj_ctxd(ptr noundef %25, double noundef %27)
  br label %29

29:                                               ; preds = %20, %24, %12
  %30 = phi double [ %19, %12 ], [ %28, %24 ], [ %8, %20 ]
  %31 = getelementptr inbounds nuw i8, ptr %5, i64 24
  %32 = load double, ptr %31, align 8, !tbaa !53
  %33 = load double, ptr %9, align 8, !tbaa !50
  %34 = tail call double @cos(double noundef %8) #7, !tbaa !51
  %35 = fadd double %33, %34
  %36 = fmul double %32, %35
  %37 = fdiv double %0, %36
  %.fca.0.insert = insertvalue { double, double } poison, double %37, 0
  %.fca.1.insert = insertvalue { double, double } %.fca.0.insert, double %30, 1
  ret { double, double } %.fca.1.insert
}